target datalayout = "e-m:e-p270:32:32-p271:32:32-p272:64:64-i64:64-i128:128-f80:128-n8:16:32:64-S128"
target triple = "x86_64-pc-linux-gnu"

%"class.zxing::PerspectiveTransform" = type { %"class.zxing::Counted.base", float, float, float, float, float, float, float, float, float }
%"class.zxing::Counted.base" = type <{ ptr, i32 }>
%"struct.std::_Vector_base" = type { %"struct.std::_Vector_base<float, std::allocator<float>>::_Vector_impl" }
%"struct.std::_Vector_base<float, std::allocator<float>>::_Vector_impl" = type { %"struct.std::_Vector_base<float, std::allocator<float>>::_Vector_impl_data" }
%"struct.std::_Vector_base<float, std::allocator<float>>::_Vector_impl_data" = type { ptr, ptr, ptr }

; Function Attrs: mustprogress nounwind uwtable
define linkonce_odr hidden noundef nonnull align 4 dereferenceable(4) ptr @_ZNSt6vectorIfSaIfEEixEm(ptr noundef nonnull align 8 dereferenceable(24) %0, i64 noundef %1) #1 comdat align 2 {
  %3 = alloca ptr, align 8
  %4 = alloca i64, align 8
  store ptr %0, ptr %3, align 8, !tbaa !31
  store i64 %1, ptr %4, align 8, !tbaa !41
  %5 = load ptr, ptr %3, align 8
  %6 = getelementptr inbounds nuw %"struct.std::_Vector_base", ptr %5, i32 0, i32 0
  %7 = getelementptr inbounds nuw %"struct.std::_Vector_base<float, std::allocator<float>>::_Vector_impl_data", ptr %6, i32 0, i32 0
  %8 = load ptr, ptr %7, align 8, !tbaa !40
  %9 = load i64, ptr %4, align 8, !tbaa !41
  %10 = getelementptr inbounds nuw float, ptr %8, i64 %9
  ret ptr %10
}

; Function Attrs: mustprogress nounwind uwtable
define linkonce_odr hidden noundef i64 @_ZNKSt6vectorIfSaIfEE4sizeEv(ptr noundef nonnull align 8 dereferenceable(24) %0) #1 comdat align 2 {
  %2 = alloca ptr, align 8
  store ptr %0, ptr %2, align 8, !tbaa !31
  %3 = load ptr, ptr %2, align 8
  %4 = getelementptr inbounds nuw %"struct.std::_Vector_base", ptr %3, i32 0, i32 0
  %5 = getelementptr inbounds nuw %"struct.std::_Vector_base<float, std::allocator<float>>::_Vector_impl_data", ptr %4, i32 0, i32 1
  %6 = load ptr, ptr %5, align 8, !tbaa !38
  %7 = getelementptr inbounds nuw %"struct.std::_Vector_base", ptr %3, i32 0, i32 0
  %8 = getelementptr inbounds nuw %"struct.std::_Vector_base<float, std::allocator<float>>::_Vector_impl_data", ptr %7, i32 0, i32 0
  %9 = load ptr, ptr %8, align 8, !tbaa !40
  %10 = ptrtoint ptr %6 to i64
  %11 = ptrtoint ptr %9 to i64
  %12 = sub i64 %10, %11
  %13 = sdiv exact i64 %12, 4
  ret i64 %13
}

; Function Attrs: mustprogress nounwind uwtable
define hidden void @_ZN5zxing20PerspectiveTransform15transformPointsERSt6vectorIfSaIfEE(ptr noundef nonnull align 8 dereferenceable(48) %0, ptr noundef nonnull align 8 dereferenceable(24) %1) #1 align 2 {
  %3 = alloca ptr, align 8
  %4 = alloca ptr, align 8
  %5 = alloca i32, align 4
  %6 = alloca ptr, align 8
  %7 = alloca i32, align 4
  %8 = alloca float, align 4
  %9 = alloca float, align 4
  %10 = alloca float, align 4
  %11 = alloca float, align 4
  store ptr %0, ptr %3, align 8, !tbaa !3
  store ptr %1, ptr %4, align 8, !tbaa !31
  %12 = load ptr, ptr %3, align 8
  call void @llvm.lifetime.start.p0(i64 4, ptr %5) #8
  %13 = load ptr, ptr %4, align 8, !tbaa !31
  %14 = call noundef i64 @_ZNKSt6vectorIfSaIfEE4sizeEv(ptr noundef nonnull align 8 dereferenceable(24) %13) #8
  %15 = trunc i64 %14 to i32
  store i32 %15, ptr %5, align 4, !tbaa !33
  call void @llvm.lifetime.start.p0(i64 8, ptr %6) #8
  store ptr null, ptr %6, align 8, !tbaa !34
  %16 = load ptr, ptr %4, align 8, !tbaa !31
  %17 = call noundef i64 @_ZNKSt6vectorIfSaIfEE4sizeEv(ptr noundef nonnull align 8 dereferenceable(24) %16) #8
  %18 = icmp ugt i64 %17, 0
  br i1 %18, label %19, label %22

19:                                               ; preds = %2
  %20 = load ptr, ptr %4, align 8, !tbaa !31
  %21 = call noundef nonnull align 4 dereferenceable(4) ptr @_ZNSt6vectorIfSaIfEEixEm(ptr noundef nonnull align 8 dereferenceable(24) %20, i64 noundef 0) #8
  store ptr %21, ptr %6, align 8, !tbaa !34
  br label %22

22:                                               ; preds = %19, %2
  call void @llvm.lifetime.start.p0(i64 4, ptr %7) #8
  store i32 0, ptr %7, align 4, !tbaa !33
  br label %23

23:                                               ; preds = %88, %22
  %24 = load i32, ptr %7, align 4, !tbaa !33
  %25 = load i32, ptr %5, align 4, !tbaa !33
  %26 = icmp slt i32 %24, %25
  br i1 %26, label %28, label %27

27:                                               ; preds = %23
  call void @llvm.lifetime.end.p0(i64 4, ptr %7) #8
  br label %91

28:                                               ; preds = %23
  call void @llvm.lifetime.start.p0(i64 4, ptr %8) #8
  %29 = load ptr, ptr %6, align 8, !tbaa !34
  %30 = load i32, ptr %7, align 4, !tbaa !33
  %31 = sext i32 %30 to i64
  %32 = getelementptr inbounds float, ptr %29, i64 %31
  %33 = load float, ptr %32, align 4, !tbaa !8
  store float %33, ptr %8, align 4, !tbaa !8
  call void @llvm.lifetime.start.p0(i64 4, ptr %9) #8
  %34 = load ptr, ptr %6, align 8, !tbaa !34
  %35 = load i32, ptr %7, align 4, !tbaa !33
  %36 = add nsw i32 %35, 1
  %37 = sext i32 %36 to i64
  %38 = getelementptr inbounds float, ptr %34, i64 %37
  %39 = load float, ptr %38, align 4, !tbaa !8
  store float %39, ptr %9, align 4, !tbaa !8
  call void @llvm.lifetime.start.p0(i64 4, ptr %10) #8
  %40 = getelementptr inbounds nuw %"class.zxing::PerspectiveTransform", ptr %12, i32 0, i32 3
  %41 = load float, ptr %40, align 4, !tbaa !17
  %42 = load float, ptr %8, align 4, !tbaa !8
  %43 = getelementptr inbounds nuw %"class.zxing::PerspectiveTransform", ptr %12, i32 0, i32 6
  %44 = load float, ptr %43, align 8, !tbaa !20
  %45 = load float, ptr %9, align 4, !tbaa !8
  %46 = fmul float %44, %45
  %47 = call float @llvm.fmuladd.f32(float %41, float %42, float %46)
  %48 = getelementptr inbounds nuw %"class.zxing::PerspectiveTransform", ptr %12, i32 0, i32 9
  %49 = load float, ptr %48, align 4, !tbaa !23
  %50 = fadd float %47, %49
  store float %50, ptr %10, align 4, !tbaa !8
  call void @llvm.lifetime.start.p0(i64 4, ptr %11) #8
  %51 = load float, ptr %10, align 4, !tbaa !8
  %52 = fdiv float 1.000000e+00, %51
  store float %52, ptr %11, align 4, !tbaa !8
  %53 = getelementptr inbounds nuw %"class.zxing::PerspectiveTransform", ptr %12, i32 0, i32 1
  %54 = load float, ptr %53, align 4, !tbaa !12
  %55 = load float, ptr %8, align 4, !tbaa !8
  %56 = getelementptr inbounds nuw %"class.zxing::PerspectiveTransform", ptr %12, i32 0, i32 4
  %57 = load float, ptr %56, align 8, !tbaa !18
  %58 = load float, ptr %9, align 4, !tbaa !8
  %59 = fmul float %57, %58
  %60 = call float @llvm.fmuladd.f32(float %54, float %55, float %59)
  %61 = getelementptr inbounds nuw %"class.zxing::PerspectiveTransform", ptr %12, i32 0, i32 7
  %62 = load float, ptr %61, align 4, !tbaa !21
  %63 = fadd float %60, %62
  %64 = load float, ptr %11, align 4, !tbaa !8
  %65 = fmul float %63, %64
  %66 = load ptr, ptr %6, align 8, !tbaa !34
  %67 = load i32, ptr %7, align 4, !tbaa !33
  %68 = sext i32 %67 to i64
  %69 = getelementptr inbounds float, ptr %66, i64 %68
  store float %65, ptr %69, align 4, !tbaa !8
  %70 = getelementptr inbounds nuw %"class.zxing::PerspectiveTransform", ptr %12, i32 0, i32 2
  %71 = load float, ptr %70, align 8, !tbaa !16
  %72 = load float, ptr %8, align 4, !tbaa !8
  %73 = getelementptr inbounds nuw %"class.zxing::PerspectiveTransform", ptr %12, i32 0, i32 5
  %74 = load float, ptr %73, align 4, !tbaa !19
  %75 = load float, ptr %9, align 4, !tbaa !8
  %76 = fmul float %74, %75
  %77 = call float @llvm.fmuladd.f32(float %71, float %72, float %76)
  %78 = getelementptr inbounds nuw %"class.zxing::PerspectiveTransform", ptr %12, i32 0, i32 8
  %79 = load float, ptr %78, align 8, !tbaa !22
  %80 = fadd float %77, %79
  %81 = load float, ptr %11, align 4, !tbaa !8
  %82 = fmul float %80, %81
  %83 = load ptr, ptr %6, align 8, !tbaa !34
  %84 = load i32, ptr %7, align 4, !tbaa !33
  %85 = add nsw i32 %84, 1
  %86 = sext i32 %85 to i64
  %87 = getelementptr inbounds float, ptr %83, i64 %86
  store float %82, ptr %87, align 4, !tbaa !8
  call void @llvm.lifetime.end.p0(i64 4, ptr %11) #8
  call void @llvm.lifetime.end.p0(i64 4, ptr %10) #8
  call void @llvm.lifetime.end.p0(i64 4, ptr %9) #8
  call void @llvm.lifetime.end.p0(i64 4, ptr %8) #8
  br label %88

88:                                               ; preds = %28
  %89 = load i32, ptr %7, align 4, !tbaa !33
  %90 = add nsw i32 %89, 2
  store i32 %90, ptr %7, align 4, !tbaa !33
  br label %23, !llvm.loop !36

91:                                               ; preds = %27
  call void @llvm.lifetime.end.p0(i64 8, ptr %6) #8
  call void @llvm.lifetime.end.p0(i64 4, ptr %5) #8
  ret void
}