; Function Attrs: mustprogress nofree norecurse nosync nounwind memory(readwrite, inaccessiblemem: none) uwtable
define hidden void @_ZN5zxing20PerspectiveTransform15transformPointsERSt6vectorIfSaIfEE(ptr noundef nonnull readonly align 8 captures(none) dereferenceable(48) %0, ptr noundef nonnull readonly align 8 captures(none) dereferenceable(24) %1) local_unnamed_addr #6 align 2 {
  %3 = getelementptr inbounds nuw i8, ptr %1, i64 8
  %4 = load ptr, ptr %3, align 8, !tbaa !31
  %5 = load ptr, ptr %1, align 8, !tbaa !34
  %6 = ptrtoint ptr %4 to i64
  %7 = ptrtoint ptr %5 to i64
  %8 = sub i64 %6, %7
  %9 = lshr exact i64 %8, 2
  %10 = trunc i64 %9 to i32
  %.not = icmp eq ptr %4, %5
  %spec.select = select i1 %.not, ptr null, ptr %5
  %11 = icmp sgt i32 %10, 0
  br i1 %11, label %.lr.ph, label %._crit_edge

.lr.ph:                                           ; preds = %2
  %12 = getelementptr inbounds nuw i8, ptr %0, i64 20
  %13 = getelementptr inbounds nuw i8, ptr %0, i64 32
  %14 = getelementptr inbounds nuw i8, ptr %0, i64 44
  %15 = getelementptr inbounds nuw i8, ptr %0, i64 12
  %16 = getelementptr inbounds nuw i8, ptr %0, i64 24
  %17 = getelementptr inbounds nuw i8, ptr %0, i64 36
  %18 = getelementptr inbounds nuw i8, ptr %0, i64 16
  %19 = getelementptr inbounds nuw i8, ptr %0, i64 28
  %20 = getelementptr inbounds nuw i8, ptr %0, i64 40
  %21 = and i64 %9, 2147483647
  br label %22

._crit_edge:                                      ; preds = %22, %2
  ret void

22:                                               ; preds = %.lr.ph, %22
  %indvars.iv = phi i64 [ 0, %.lr.ph ], [ %indvars.iv.next, %22 ]
  %23 = getelementptr inbounds nuw float, ptr %spec.select, i64 %indvars.iv
  %24 = load float, ptr %23, align 4, !tbaa !35
  %25 = or disjoint i64 %indvars.iv, 1
  %26 = getelementptr inbounds nuw float, ptr %spec.select, i64 %25
  %27 = load float, ptr %26, align 4, !tbaa !35
  %28 = load float, ptr %12, align 4, !tbaa !14
  %29 = load float, ptr %13, align 8, !tbaa !17
  %30 = fmul float %27, %29
  %31 = tail call float @llvm.fmuladd.f32(float %28, float %24, float %30)
  %32 = load float, ptr %14, align 4, !tbaa !20
  %33 = fadd float %32, %31
  %34 = fdiv float 1.000000e+00, %33
  %35 = load float, ptr %15, align 4, !tbaa !10
  %36 = load float, ptr %16, align 8, !tbaa !15
  %37 = fmul float %27, %36
  %38 = tail call float @llvm.fmuladd.f32(float %35, float %24, float %37)
  %39 = load float, ptr %17, align 4, !tbaa !18
  %40 = fadd float %39, %38
  %41 = fmul float %34, %40
  store float %41, ptr %23, align 4, !tbaa !35
  %42 = load float, ptr %18, align 8, !tbaa !13
  %43 = load float, ptr %19, align 4, !tbaa !16
  %44 = fmul float %27, %43
  %45 = tail call float @llvm.fmuladd.f32(float %42, float %24, float %44)
  %46 = load float, ptr %20, align 8, !tbaa !19
  %47 = fadd float %46, %45
  %48 = fmul float %34, %47
  store float %48, ptr %26, align 4, !tbaa !35
  %indvars.iv.next = add nuw nsw i64 %indvars.iv, 2
  %49 = icmp samesign ult i64 %indvars.iv.next, %21
  br i1 %49, label %22, label %._crit_edge, !llvm.loop !36
}